; Function Attrs: nounwind uwtable
define dso_local i32 @cgroup_g_step_resume() local_unnamed_addr #0 {
  %1 = load i32, ptr @plugin_inited, align 4
  %2 = icmp eq i32 %1, 1
  br i1 %2, label %6, label %3

3:                                                ; preds = %0
  %4 = load ptr, ptr getelementptr inbounds nuw (i8, ptr @ops, i64 64), align 8
  %5 = tail call i32 %4() #12
  br label %6

6:                                                ; preds = %0, %3
  %.0 = phi i32 [ %5, %3 ], [ 0, %0 ]
  ret i32 %.0
}